; Function Attrs: mustprogress uwtable
define hidden noundef nonnull align 8 dereferenceable(8) ptr @_ZN4cvc58internal6theory5arith6linearlsERSoNS3_14ArithProofTypeE(ptr noundef nonnull returned align 8 dereferenceable(8) %o, i32 noundef %apt) local_unnamed_addr #4 {
entry:
  %0 = icmp ult i32 %apt, 8
  br i1 %0, label %switch.lookup, label %sw.epilog

switch.lookup:                                    ; preds = %entry
  %1 = zext nneg i32 %apt to i64
  %switch.gep = getelementptr inbounds [8 x ptr], ptr @switch.table._ZNK4cvc58internal6theory5arith6linear10Constraint14printProofTreeERSom, i64 0, i64 %1
  %switch.load = load ptr, ptr %switch.gep, align 8
  %call14 = tail call noundef nonnull align 8 dereferenceable(8) ptr @_ZStlsISt11char_traitsIcEERSt13basic_ostreamIcT_ES5_PKc(ptr noundef nonnull align 8 dereferenceable(8) %o, ptr noundef nonnull %switch.load)
  br label %sw.epilog

sw.epilog:                                        ; preds = %entry, %switch.lookup
  ret ptr %o
}